target datalayout = "e-m:e-p270:32:32-p271:32:32-p272:64:64-i64:64-i128:128-f80:128-n8:16:32:64-S128"
target triple = "x86_64-pc-linux-gnu"

%"class.llvm::MemoryBufferRef" = type { %"class.llvm::StringRef", %"class.llvm::StringRef" }
%"class.llvm::StringRef" = type { ptr, i64 }
%"class.llvm::object::Binary" = type { ptr, i32, %"class.llvm::MemoryBufferRef" }
%"class.llvm::object::XCOFFObjectFile" = type { %"class.llvm::object::ObjectFile", ptr, ptr, ptr, ptr, %"struct.llvm::object::XCOFFStringTable" }
%"class.llvm::object::ObjectFile" = type { %"class.llvm::object::SymbolicFile" }
%"class.llvm::object::SymbolicFile" = type { %"class.llvm::object::Binary" }
%"struct.llvm::object::XCOFFStringTable" = type { i32, ptr }

; Function Attrs: mustprogress nounwind uwtable
define linkonce_odr hidden void @_ZN4llvm9StringRefC2EPKcm(ptr noundef nonnull align 8 dereferenceable(16) %0, ptr noundef %1, i64 noundef %2) unnamed_addr #0 comdat align 2 {
  %4 = alloca ptr, align 8
  %5 = alloca ptr, align 8
  %6 = alloca i64, align 8
  store ptr %0, ptr %4, align 8
  store ptr %1, ptr %5, align 8
  store i64 %2, ptr %6, align 8
  %7 = load ptr, ptr %4, align 8
  %8 = getelementptr inbounds nuw %"class.llvm::StringRef", ptr %7, i32 0, i32 0
  %9 = load ptr, ptr %5, align 8
  store ptr %9, ptr %8, align 8
  %10 = getelementptr inbounds nuw %"class.llvm::StringRef", ptr %7, i32 0, i32 1
  %11 = load i64, ptr %6, align 8
  store i64 %11, ptr %10, align 8
  ret void
}

; Function Attrs: mustprogress nounwind uwtable
define dso_local { ptr, i64 } @_ZNK4llvm6object15XCOFFObjectFile14getStringTableEv(ptr noundef nonnull align 8 dereferenceable(96) %0) #0 align 2 {
  %2 = alloca %"class.llvm::StringRef", align 8
  %3 = alloca ptr, align 8
  store ptr %0, ptr %3, align 8
  %4 = load ptr, ptr %3, align 8
  %5 = getelementptr inbounds nuw %"class.llvm::object::XCOFFObjectFile", ptr %4, i32 0, i32 5
  %6 = getelementptr inbounds nuw %"struct.llvm::object::XCOFFStringTable", ptr %5, i32 0, i32 1
  %7 = load ptr, ptr %6, align 8
  %8 = getelementptr inbounds nuw %"class.llvm::object::XCOFFObjectFile", ptr %4, i32 0, i32 5
  %9 = getelementptr inbounds nuw %"struct.llvm::object::XCOFFStringTable", ptr %8, i32 0, i32 0
  %10 = load i32, ptr %9, align 8
  %11 = icmp ule i32 %10, 4
  br i1 %11, label %12, label %13

12:                                               ; preds = %1
  br label %17

13:                                               ; preds = %1
  %14 = getelementptr inbounds nuw %"class.llvm::object::XCOFFObjectFile", ptr %4, i32 0, i32 5
  %15 = getelementptr inbounds nuw %"struct.llvm::object::XCOFFStringTable", ptr %14, i32 0, i32 0
  %16 = load i32, ptr %15, align 8
  br label %17

17:                                               ; preds = %13, %12
  %18 = phi i32 [ 0, %12 ], [ %16, %13 ]
  %19 = zext i32 %18 to i64
  call void @_ZN4llvm9StringRefC2EPKcm(ptr noundef nonnull align 8 dereferenceable(16) %2, ptr noundef %7, i64 noundef %19)
  %20 = load { ptr, i64 }, ptr %2, align 8
  ret { ptr, i64 } %20
}